target datalayout = "e-m:e-p270:32:32-p271:32:32-p272:64:64-i64:64-i128:128-f80:128-n8:16:32:64-S128"
target triple = "x86_64-pc-linux-gnu"

%struct.H5SM_sohm_t = type { i32, i32, i32, %union.anon }
%union.anon = type { %struct.H5O_mesg_loc_t }
%struct.H5O_mesg_loc_t = type { i32, i64 }
%struct.H5SM_heap_loc_t = type { i64, %union.H5O_fheap_id_t }
%union.H5O_fheap_id_t = type { i64 }
%struct.H5SM_bt2_ctx_t = type { i8 }

@H5SM_init_g = external global i8, align 1
@H5_libterm_g = external global i8, align 1

; Function Attrs: nounwind uwtable
define i32 @H5SM__message_encode(ptr noundef %0, ptr noundef %1, ptr noundef %2) #0 {
  %4 = alloca ptr, align 8
  %5 = alloca ptr, align 8
  %6 = alloca ptr, align 8
  %7 = alloca ptr, align 8
  %8 = alloca ptr, align 8
  store ptr %0, ptr %4, align 8, !tbaa !64
  store ptr %1, ptr %5, align 8, !tbaa !3
  store ptr %2, ptr %6, align 8, !tbaa !3
  call void @llvm.lifetime.start.p0(i64 8, ptr %7) #6
  %9 = load ptr, ptr %6, align 8, !tbaa !3
  store ptr %9, ptr %7, align 8, !tbaa !65
  call void @llvm.lifetime.start.p0(i64 8, ptr %8) #6
  %10 = load ptr, ptr %5, align 8, !tbaa !3
  store ptr %10, ptr %8, align 8, !tbaa !3
  %11 = load i8, ptr @H5SM_init_g, align 1, !tbaa !11, !range !13, !noundef !14
  %12 = trunc i8 %11 to i1
  br i1 %12, label %17, label %13

13:                                               ; preds = %3
  %14 = load i8, ptr @H5_libterm_g, align 1, !tbaa !11, !range !13, !noundef !14
  %15 = trunc i8 %14 to i1
  %16 = xor i1 %15, true
  br label %17

17:                                               ; preds = %13, %3
  %18 = phi i1 [ true, %3 ], [ %16, %13 ]
  %19 = xor i1 %18, true
  %20 = xor i1 %19, true
  %21 = zext i1 %20 to i32
  %22 = sext i32 %21 to i64
  %23 = call i64 @llvm.expect.i64(i64 %22, i64 1)
  %24 = icmp ne i64 %23, 0
  br i1 %24, label %25, label %162

25:                                               ; preds = %17
  %26 = load ptr, ptr %8, align 8, !tbaa !3
  %27 = getelementptr inbounds nuw %struct.H5SM_sohm_t, ptr %26, i32 0, i32 0
  %28 = load i32, ptr %27, align 8, !tbaa !15
  %29 = trunc i32 %28 to i8
  %30 = load ptr, ptr %4, align 8, !tbaa !64
  %31 = getelementptr inbounds nuw i8, ptr %30, i32 1
  store ptr %31, ptr %4, align 8, !tbaa !64
  store i8 %29, ptr %30, align 1, !tbaa !22
  br label %32

32:                                               ; preds = %25
  %33 = load ptr, ptr %8, align 8, !tbaa !3
  %34 = getelementptr inbounds nuw %struct.H5SM_sohm_t, ptr %33, i32 0, i32 1
  %35 = load i32, ptr %34, align 4, !tbaa !26
  %36 = and i32 %35, 255
  %37 = trunc i32 %36 to i8
  %38 = load ptr, ptr %4, align 8, !tbaa !64
  store i8 %37, ptr %38, align 1, !tbaa !22
  %39 = load ptr, ptr %4, align 8, !tbaa !64
  %40 = getelementptr inbounds nuw i8, ptr %39, i32 1
  store ptr %40, ptr %4, align 8, !tbaa !64
  %41 = load ptr, ptr %8, align 8, !tbaa !3
  %42 = getelementptr inbounds nuw %struct.H5SM_sohm_t, ptr %41, i32 0, i32 1
  %43 = load i32, ptr %42, align 4, !tbaa !26
  %44 = lshr i32 %43, 8
  %45 = and i32 %44, 255
  %46 = trunc i32 %45 to i8
  %47 = load ptr, ptr %4, align 8, !tbaa !64
  store i8 %46, ptr %47, align 1, !tbaa !22
  %48 = load ptr, ptr %4, align 8, !tbaa !64
  %49 = getelementptr inbounds nuw i8, ptr %48, i32 1
  store ptr %49, ptr %4, align 8, !tbaa !64
  %50 = load ptr, ptr %8, align 8, !tbaa !3
  %51 = getelementptr inbounds nuw %struct.H5SM_sohm_t, ptr %50, i32 0, i32 1
  %52 = load i32, ptr %51, align 4, !tbaa !26
  %53 = lshr i32 %52, 16
  %54 = and i32 %53, 255
  %55 = trunc i32 %54 to i8
  %56 = load ptr, ptr %4, align 8, !tbaa !64
  store i8 %55, ptr %56, align 1, !tbaa !22
  %57 = load ptr, ptr %4, align 8, !tbaa !64
  %58 = getelementptr inbounds nuw i8, ptr %57, i32 1
  store ptr %58, ptr %4, align 8, !tbaa !64
  %59 = load ptr, ptr %8, align 8, !tbaa !3
  %60 = getelementptr inbounds nuw %struct.H5SM_sohm_t, ptr %59, i32 0, i32 1
  %61 = load i32, ptr %60, align 4, !tbaa !26
  %62 = lshr i32 %61, 24
  %63 = and i32 %62, 255
  %64 = trunc i32 %63 to i8
  %65 = load ptr, ptr %4, align 8, !tbaa !64
  store i8 %64, ptr %65, align 1, !tbaa !22
  %66 = load ptr, ptr %4, align 8, !tbaa !64
  %67 = getelementptr inbounds nuw i8, ptr %66, i32 1
  store ptr %67, ptr %4, align 8, !tbaa !64
  br label %68

68:                                               ; preds = %32
  br label %69

69:                                               ; preds = %68
  %70 = load ptr, ptr %8, align 8, !tbaa !3
  %71 = getelementptr inbounds nuw %struct.H5SM_sohm_t, ptr %70, i32 0, i32 0
  %72 = load i32, ptr %71, align 8, !tbaa !15
  %73 = icmp eq i32 %72, 0
  br i1 %73, label %74, label %122

74:                                               ; preds = %69
  br label %75

75:                                               ; preds = %74
  %76 = load ptr, ptr %8, align 8, !tbaa !3
  %77 = getelementptr inbounds nuw %struct.H5SM_sohm_t, ptr %76, i32 0, i32 3
  %78 = getelementptr inbounds nuw %struct.H5SM_heap_loc_t, ptr %77, i32 0, i32 0
  %79 = load i64, ptr %78, align 8, !tbaa !22
  %80 = and i64 %79, 255
  %81 = trunc i64 %80 to i8
  %82 = load ptr, ptr %4, align 8, !tbaa !64
  store i8 %81, ptr %82, align 1, !tbaa !22
  %83 = load ptr, ptr %4, align 8, !tbaa !64
  %84 = getelementptr inbounds nuw i8, ptr %83, i32 1
  store ptr %84, ptr %4, align 8, !tbaa !64
  %85 = load ptr, ptr %8, align 8, !tbaa !3
  %86 = getelementptr inbounds nuw %struct.H5SM_sohm_t, ptr %85, i32 0, i32 3
  %87 = getelementptr inbounds nuw %struct.H5SM_heap_loc_t, ptr %86, i32 0, i32 0
  %88 = load i64, ptr %87, align 8, !tbaa !22
  %89 = lshr i64 %88, 8
  %90 = and i64 %89, 255
  %91 = trunc i64 %90 to i8
  %92 = load ptr, ptr %4, align 8, !tbaa !64
  store i8 %91, ptr %92, align 1, !tbaa !22
  %93 = load ptr, ptr %4, align 8, !tbaa !64
  %94 = getelementptr inbounds nuw i8, ptr %93, i32 1
  store ptr %94, ptr %4, align 8, !tbaa !64
  %95 = load ptr, ptr %8, align 8, !tbaa !3
  %96 = getelementptr inbounds nuw %struct.H5SM_sohm_t, ptr %95, i32 0, i32 3
  %97 = getelementptr inbounds nuw %struct.H5SM_heap_loc_t, ptr %96, i32 0, i32 0
  %98 = load i64, ptr %97, align 8, !tbaa !22
  %99 = lshr i64 %98, 16
  %100 = and i64 %99, 255
  %101 = trunc i64 %100 to i8
  %102 = load ptr, ptr %4, align 8, !tbaa !64
  store i8 %101, ptr %102, align 1, !tbaa !22
  %103 = load ptr, ptr %4, align 8, !tbaa !64
  %104 = getelementptr inbounds nuw i8, ptr %103, i32 1
  store ptr %104, ptr %4, align 8, !tbaa !64
  %105 = load ptr, ptr %8, align 8, !tbaa !3
  %106 = getelementptr inbounds nuw %struct.H5SM_sohm_t, ptr %105, i32 0, i32 3
  %107 = getelementptr inbounds nuw %struct.H5SM_heap_loc_t, ptr %106, i32 0, i32 0
  %108 = load i64, ptr %107, align 8, !tbaa !22
  %109 = lshr i64 %108, 24
  %110 = and i64 %109, 255
  %111 = trunc i64 %110 to i8
  %112 = load ptr, ptr %4, align 8, !tbaa !64
  store i8 %111, ptr %112, align 1, !tbaa !22
  %113 = load ptr, ptr %4, align 8, !tbaa !64
  %114 = getelementptr inbounds nuw i8, ptr %113, i32 1
  store ptr %114, ptr %4, align 8, !tbaa !64
  br label %115

115:                                              ; preds = %75
  br label %116

116:                                              ; preds = %115
  %117 = load ptr, ptr %4, align 8, !tbaa !64
  %118 = load ptr, ptr %8, align 8, !tbaa !3
  %119 = getelementptr inbounds nuw %struct.H5SM_sohm_t, ptr %118, i32 0, i32 3
  %120 = getelementptr inbounds nuw %struct.H5SM_heap_loc_t, ptr %119, i32 0, i32 1
  %121 = getelementptr inbounds [8 x i8], ptr %120, i64 0, i64 0
  call void @llvm.memcpy.p0.p0.i64(ptr align 1 %117, ptr align 8 %121, i64 8, i1 false)
  br label %161

122:                                              ; preds = %69
  %123 = load ptr, ptr %4, align 8, !tbaa !64
  %124 = getelementptr inbounds nuw i8, ptr %123, i32 1
  store ptr %124, ptr %4, align 8, !tbaa !64
  store i8 0, ptr %123, align 1, !tbaa !22
  %125 = load ptr, ptr %8, align 8, !tbaa !3
  %126 = getelementptr inbounds nuw %struct.H5SM_sohm_t, ptr %125, i32 0, i32 2
  %127 = load i32, ptr %126, align 8, !tbaa !24
  %128 = trunc i32 %127 to i8
  %129 = load ptr, ptr %4, align 8, !tbaa !64
  %130 = getelementptr inbounds nuw i8, ptr %129, i32 1
  store ptr %130, ptr %4, align 8, !tbaa !64
  store i8 %128, ptr %129, align 1, !tbaa !22
  br label %131

131:                                              ; preds = %122
  %132 = load ptr, ptr %8, align 8, !tbaa !3
  %133 = getelementptr inbounds nuw %struct.H5SM_sohm_t, ptr %132, i32 0, i32 3
  %134 = getelementptr inbounds nuw %struct.H5O_mesg_loc_t, ptr %133, i32 0, i32 0
  %135 = load i32, ptr %134, align 8, !tbaa !22
  %136 = and i32 %135, 255
  %137 = trunc i32 %136 to i8
  %138 = load ptr, ptr %4, align 8, !tbaa !64
  store i8 %137, ptr %138, align 1, !tbaa !22
  %139 = load ptr, ptr %4, align 8, !tbaa !64
  %140 = getelementptr inbounds nuw i8, ptr %139, i32 1
  store ptr %140, ptr %4, align 8, !tbaa !64
  %141 = load ptr, ptr %8, align 8, !tbaa !3
  %142 = getelementptr inbounds nuw %struct.H5SM_sohm_t, ptr %141, i32 0, i32 3
  %143 = getelementptr inbounds nuw %struct.H5O_mesg_loc_t, ptr %142, i32 0, i32 0
  %144 = load i32, ptr %143, align 8, !tbaa !22
  %145 = lshr i32 %144, 8
  %146 = and i32 %145, 255
  %147 = trunc i32 %146 to i8
  %148 = load ptr, ptr %4, align 8, !tbaa !64
  store i8 %147, ptr %148, align 1, !tbaa !22
  %149 = load ptr, ptr %4, align 8, !tbaa !64
  %150 = getelementptr inbounds nuw i8, ptr %149, i32 1
  store ptr %150, ptr %4, align 8, !tbaa !64
  br label %151

151:                                              ; preds = %131
  br label %152

152:                                              ; preds = %151
  %153 = load ptr, ptr %7, align 8, !tbaa !65
  %154 = getelementptr inbounds nuw %struct.H5SM_bt2_ctx_t, ptr %153, i32 0, i32 0
  %155 = load i8, ptr %154, align 1, !tbaa !67
  %156 = zext i8 %155 to i64
  %157 = load ptr, ptr %8, align 8, !tbaa !3
  %158 = getelementptr inbounds nuw %struct.H5SM_sohm_t, ptr %157, i32 0, i32 3
  %159 = getelementptr inbounds nuw %struct.H5O_mesg_loc_t, ptr %158, i32 0, i32 1
  %160 = load i64, ptr %159, align 8, !tbaa !22
  call void @H5F_addr_encode_len(i64 noundef %156, ptr noundef %4, i64 noundef %160)
  br label %161

161:                                              ; preds = %152, %116
  br label %162

162:                                              ; preds = %161, %17
  call void @llvm.lifetime.end.p0(i64 8, ptr %8) #6
  call void @llvm.lifetime.end.p0(i64 8, ptr %7) #6
  ret i32 0
}