; Function Attrs: nounwind uwtable
define noundef i32 @H5SM__message_encode(ptr noundef %0, ptr noundef readonly captures(none) %1, ptr noundef readonly captures(none) %2) local_unnamed_addr #0 {
  %4 = alloca ptr, align 8
  %5 = load i8, ptr @H5SM_init_g, align 1, !tbaa !3, !range !7, !noundef !8
  %6 = trunc nuw i8 %5 to i1
  %7 = load i8, ptr @H5_libterm_g, align 1, !range !7
  %8 = trunc nuw i8 %7 to i1
  %9 = xor i1 %8, true
  %10 = select i1 %6, i1 true, i1 %9
  br i1 %10, label %11, label %69, !prof !9

11:                                               ; preds = %3
  %12 = load i32, ptr %1, align 8, !tbaa !10
  %13 = trunc i32 %12 to i8
  %14 = getelementptr inbounds nuw i8, ptr %0, i64 1
  store i8 %13, ptr %0, align 1, !tbaa !19
  %15 = getelementptr inbounds nuw i8, ptr %1, i64 4
  %16 = load i32, ptr %15, align 4, !tbaa !24
  %17 = trunc i32 %16 to i8
  store i8 %17, ptr %14, align 1, !tbaa !19
  %18 = getelementptr inbounds nuw i8, ptr %0, i64 2
  %19 = load i32, ptr %15, align 4, !tbaa !24
  %20 = lshr i32 %19, 8
  %21 = trunc i32 %20 to i8
  store i8 %21, ptr %18, align 1, !tbaa !19
  %22 = getelementptr inbounds nuw i8, ptr %0, i64 3
  %23 = load i32, ptr %15, align 4, !tbaa !24
  %24 = lshr i32 %23, 16
  %25 = trunc i32 %24 to i8
  store i8 %25, ptr %22, align 1, !tbaa !19
  %26 = getelementptr inbounds nuw i8, ptr %0, i64 4
  %27 = load i32, ptr %15, align 4, !tbaa !24
  %28 = lshr i32 %27, 24
  %29 = trunc nuw i32 %28 to i8
  store i8 %29, ptr %26, align 1, !tbaa !19
  %30 = getelementptr inbounds nuw i8, ptr %0, i64 5
  %31 = load i32, ptr %1, align 8, !tbaa !10
  %32 = icmp eq i32 %31, 0
  %33 = getelementptr inbounds nuw i8, ptr %1, i64 24
  br i1 %32, label %34, label %52

34:                                               ; preds = %11
  %35 = getelementptr inbounds nuw i8, ptr %1, i64 16
  %36 = load i64, ptr %35, align 8, !tbaa !19
  %37 = trunc i64 %36 to i8
  store i8 %37, ptr %30, align 1, !tbaa !19
  %38 = getelementptr inbounds nuw i8, ptr %0, i64 6
  %39 = load i64, ptr %35, align 8, !tbaa !19
  %40 = lshr i64 %39, 8
  %41 = trunc i64 %40 to i8
  store i8 %41, ptr %38, align 1, !tbaa !19
  %42 = getelementptr inbounds nuw i8, ptr %0, i64 7
  %43 = load i64, ptr %35, align 8, !tbaa !19
  %44 = lshr i64 %43, 16
  %45 = trunc i64 %44 to i8
  store i8 %45, ptr %42, align 1, !tbaa !19
  %46 = getelementptr inbounds nuw i8, ptr %0, i64 8
  %47 = load i64, ptr %35, align 8, !tbaa !19
  %48 = lshr i64 %47, 24
  %49 = trunc i64 %48 to i8
  store i8 %49, ptr %46, align 1, !tbaa !19
  %50 = getelementptr inbounds nuw i8, ptr %0, i64 9
  %51 = load i64, ptr %33, align 8
  store i64 %51, ptr %50, align 1
  br label %69

52:                                               ; preds = %11
  %53 = getelementptr inbounds nuw i8, ptr %0, i64 6
  store i8 0, ptr %30, align 1, !tbaa !19
  %54 = getelementptr inbounds nuw i8, ptr %1, i64 8
  %55 = load i32, ptr %54, align 8, !tbaa !22
  %56 = trunc i32 %55 to i8
  %57 = getelementptr inbounds nuw i8, ptr %0, i64 7
  store i8 %56, ptr %53, align 1, !tbaa !19
  %58 = getelementptr inbounds nuw i8, ptr %1, i64 16
  %59 = load i32, ptr %58, align 8, !tbaa !19
  %60 = trunc i32 %59 to i8
  store i8 %60, ptr %57, align 1, !tbaa !19
  %61 = getelementptr inbounds nuw i8, ptr %0, i64 8
  %62 = load i32, ptr %58, align 8, !tbaa !19
  %63 = lshr i32 %62, 8
  %64 = trunc i32 %63 to i8
  store i8 %64, ptr %61, align 1, !tbaa !19
  %65 = getelementptr inbounds nuw i8, ptr %0, i64 9
  store ptr %65, ptr %4, align 8, !tbaa !57
  %66 = load i8, ptr %2, align 1, !tbaa !58
  %67 = zext i8 %66 to i64
  %68 = load i64, ptr %33, align 8, !tbaa !19
  call void @H5F_addr_encode_len(i64 noundef %67, ptr noundef nonnull %4, i64 noundef %68) #5
  br label %69

69:                                               ; preds = %34, %52, %3
  ret i32 0
}